Certificate:
    Data:
        Version: 3 (0x2)
        Serial Number:
            d3:ff:e8:17:fc:62:51:6f:b6:b3:21:e0:75:92:fa:6c
        Signature Algorithm: sha256WithRSAEncryption
        Issuer: CN=Root CA
        Validity
            Not Before: Nov 19 22:31:12 2023 GMT
            Not After : Nov 16 22:31:12 2033 GMT
        Subject: C=US, ST=Missouri, O=FairCom Corporation, OU=Security Department, CN=admin/emailAddress=support@faircom.com
        Subject Public Key Info:
            Public Key Algorithm: rsaEncryption
                RSA Public-Key: (2048 bit)
                Modulus:
                    00:c6:73:6f:52:b3:70:f8:8a:a1:3d:21:64:ca:80:
                    e0:54:8a:2f:6b:b1:e3:d6:2a:99:d4:59:c5:05:95:
                    cf:07:ec:91:c8:8b:64:b7:42:7b:5e:7b:2f:e6:ba:
                    c1:89:f7:48:f9:96:8c:c1:d3:9d:db:c3:fe:5a:fc:
                    fc:77:0f:48:f9:39:ee:ae:c8:43:cf:13:c6:23:51:
                    5b:51:ea:8f:01:3e:55:9c:f9:f4:d0:a4:5c:7e:b9:
                    43:3a:0b:7c:c5:01:e2:b6:5e:e8:da:50:92:10:8f:
                    dd:cb:c5:08:6e:4e:b4:69:5f:94:e5:f2:0e:97:34:
                    71:a3:90:d9:eb:42:67:62:80:82:6f:bb:99:d4:31:
                    82:11:6f:41:1a:da:5d:cc:16:68:e2:1f:d8:43:8a:
                    37:19:64:e3:d7:64:37:67:15:81:80:47:43:2e:70:
                    63:21:48:fa:fa:74:2f:ac:b2:d3:df:7e:58:57:29:
                    b5:5c:5b:b7:d1:e5:37:14:3c:6b:bd:d6:dd:b9:1d:
                    8d:e8:a9:69:7d:ed:a1:df:13:d7:a4:27:c2:3a:b8:
                    2a:d7:12:30:7a:5e:04:11:4f:be:dc:14:34:77:c2:
                    2a:c4:18:b7:5d:74:e5:dc:b5:dc:3e:a4:ec:08:a6:
                    d3:53:bc:1a:41:63:2f:be:b2:ef:ff:b7:8f:42:ad:
                    ed:ab
                Exponent: 65537 (0x10001)
        X509v3 extensions:
            X509v3 Subject Key Identifier: 
                00:AC:6B:77:76:C8:0F:63:6A:82:79:93:6C:F5:DC:BE:FB:09:0B:8C
            X509v3 Authority Key Identifier: 
                keyid:E8:62:2B:1A:B2:B9:08:04:D9:14:02:9E:61:E8:EF:6F:2D:6A:1D:2A

            X509v3 Basic Constraints: critical
                CA:FALSE
            X509v3 Extended Key Usage: 
                TLS Web Client Authentication
            X509v3 Key Usage: 
                Digital Signature, Non Repudiation, Key Encipherment, Data Encipherment
    Signature Algorithm: sha256WithRSAEncryption
         8a:30:61:33:1d:92:6b:34:e9:e6:89:2a:93:1a:9f:da:b1:bc:
         cc:da:be:57:a0:c1:a4:d6:46:91:90:77:5c:b4:62:0d:b8:fd:
         d4:63:c0:9a:ed:68:eb:6c:03:a9:a7:af:20:fb:2c:7d:d8:dd:
         91:8d:85:99:3b:d7:95:60:31:63:05:96:63:a3:cd:9e:bc:1b:
         6a:18:32:75:bc:3b:d4:b7:a0:c6:31:03:6d:02:eb:99:04:6c:
         01:d4:bc:15:70:2e:c7:74:03:38:1e:f4:6c:15:4f:3d:b7:32:
         a8:6f:7a:ff:48:7e:06:ff:4a:cc:de:41:63:56:45:d7:46:d4:
         3b:52:71:6b:15:09:2c:01:02:b5:d6:a0:d3:3c:ed:f8:d1:c4:
         19:67:6d:42:53:c2:5b:4a:91:08:30:68:56:51:7d:50:44:8b:
         72:21:aa:7c:fa:49:88:d6:2c:03:c6:f7:c6:a9:7a:1d:92:a9:
         5f:ae:93:4c:de:09:6b:7f:aa:a8:0f:2d:05:f1:a4:90:ed:e8:
         1b:7f:e1:46:c1:95:63:df:d9:d0:43:6c:6e:4b:95:0c:5f:75:
         5c:f6:1d:38:b3:c4:57:a3:34:02:f4:7a:79:00:df:f4:c0:27:
         a8:5e:d4:49:93:81:6a:fc:2c:8f:0c:6b:df:0a:7b:ab:ef:96:
         00:29:14:38
-----BEGIN CERTIFICATE-----
MIIDoDCCAoigAwIBAgIRANP/6Bf8YlFvtrMh4HWS+mwwDQYJKoZIhvcNAQELBQAw
EjEQMA4GA1UEAwwHUm9vdCBDQTAeFw0yMzExMTkyMjMxMTJaFw0zMzExMTYyMjMx
MTJaMIGQMQswCQYDVQQGEwJVUzERMA8GA1UECAwITWlzc291cmkxHDAaBgNVBAoM
E0ZhaXJDb20gQ29ycG9yYXRpb24xHDAaBgNVBAsME1NlY3VyaXR5IERlcGFydG1l
bnQxDjAMBgNVBAMMBWFkbWluMSIwIAYJKoZIhvcNAQkBFhNzdXBwb3J0QGZhaXJj
b20uY29tMIIBIjANBgkqhkiG9w0BAQEFAAOCAQ8AMIIBCgKCAQEAxnNvUrNw+Iqh
PSFkyoDgVIova7Hj1iqZ1FnFBZXPB+yRyItkt0J7Xnsv5rrBifdI+ZaMwdOd28P+
Wvz8dw9I+TnurshDzxPGI1FbUeqPAT5VnPn00KRcfrlDOgt8xQHitl7o2lCSEI/d
y8UIbk60aV+U5fIOlzRxo5DZ60JnYoCCb7uZ1DGCEW9BGtpdzBZo4h/YQ4o3GWTj
12Q3ZxWBgEdDLnBjIUj6+nQvrLLT335YVym1XFu30eU3FDxrvdbduR2N6Klpfe2h
3xPXpCfCOrgq1xIwel4EEU++3BQ0d8IqxBi3XXTl3LXcPqTsCKbTU7waQWMvvrLv
/7ePQq3tqwIDAQABo3IwcDAdBgNVHQ4EFgQUAKxrd3bID2NqgnmTbPXcvvsJC4ww
HwYDVR0jBBgwFoAU6GIrGrK5CATZFAKeYejvby1qHSowDAYDVR0TAQH/BAIwADAT
BgNVHSUEDDAKBggrBgEFBQcDAjALBgNVHQ8EBAMCBPAwDQYJKoZIhvcNAQELBQAD
ggEBAIowYTMdkms06eaJKpMan9qxvMzavlegwaTWRpGQd1y0Yg24/dRjwJrtaOts
A6mnryD7LH3Y3ZGNhZk715VgMWMFlmOjzZ68G2oYMnW8O9S3oMYxA20C65kEbAHU
vBVwLsd0Azge9GwVTz23Mqhvev9Ifgb/SszeQWNWRddG1DtScWsVCSwBArXWoNM8
7fjRxBlnbUJTwltKkQgwaFZRfVBEi3Ihqnz6SYjWLAPG98apeh2SqV+uk0zeCWt/
qqgPLQXxpJDt6Bt/4UbBlWPf2dBDbG5LlQxfdVz2HTizxFejNAL0enkA3/TAJ6he
1EmTgWr8LI8Ma98Ke6vvlgApFDg=
-----END CERTIFICATE-----
Certificate:
    Data:
        Version: 3 (0x2)
        Serial Number:
            d3:ff:e8:17:fc:62:51:6f:b6:b3:21:e0:75:92:fa:6a
        Signature Algorithm: sha256WithRSAEncryption
        Issuer: CN=Root CA
        Validity
            Not Before: Nov 19 22:30:58 2023 GMT
            Not After : Nov 16 22:30:58 2033 GMT
        Subject: CN=Root CA
        Subject Public Key Info:
            Public Key Algorithm: rsaEncryption
                RSA Public-Key: (2048 bit)
                Modulus:
                    00:c4:13:0b:d7:dd:0e:68:ea:83:48:ac:b7:d9:73:
                    96:79:2c:f1:22:13:3f:e4:09:28:ca:84:57:54:7f:
                    e8:43:7b:40:47:10:e7:91:ea:08:ba:84:26:a2:de:
                    69:5d:9d:cb:07:90:22:18:30:ac:a5:89:90:a3:8f:
                    96:2a:46:03:17:51:c9:5a:64:4e:f7:18:9b:8b:a3:
                    36:be:4f:93:a5:48:b5:3a:16:c8:8f:e1:07:40:93:
                    d3:db:6a:6b:33:7a:fd:5a:d3:65:73:4c:ff:a0:13:
                    bf:a2:c5:aa:be:36:f8:c0:41:e8:2a:74:77:81:34:
                    51:15:04:7f:c3:00:25:74:b1:4d:6f:f4:df:5c:46:
                    23:05:b6:dc:14:1c:c8:9b:74:7b:8d:8c:43:5b:23:
                    95:82:1a:b0:ab:8c:09:47:bc:50:d5:80:eb:85:9c:
                    3e:9a:bd:e2:be:dd:32:47:34:76:98:d7:04:f2:a3:
                    67:16:5c:2d:a3:70:4e:e6:66:c5:b1:ee:8d:9a:7d:
                    ef:9a:d9:ab:18:10:1a:8f:b9:dd:bb:33:a1:71:77:
                    db:4d:6a:e5:78:8f:55:a6:f0:07:06:e9:e7:02:fd:
                    50:97:74:d6:98:b5:56:5f:cc:65:9b:78:31:2c:6e:
                    69:0f:74:08:25:f1:e6:d5:b1:f6:66:55:92:a0:99:
                    d1:c5
                Exponent: 65537 (0x10001)
        X509v3 extensions:
            X509v3 Basic Constraints: critical
                CA:TRUE
            X509v3 Subject Key Identifier: 
                E8:62:2B:1A:B2:B9:08:04:D9:14:02:9E:61:E8:EF:6F:2D:6A:1D:2A
            X509v3 Authority Key Identifier: 
                keyid:E8:62:2B:1A:B2:B9:08:04:D9:14:02:9E:61:E8:EF:6F:2D:6A:1D:2A

            X509v3 Key Usage: critical
                Certificate Sign, CRL Sign
    Signature Algorithm: sha256WithRSAEncryption
         28:d9:07:e3:26:35:9c:71:8a:49:dc:e1:af:0b:2c:7a:09:57:
         13:e8:65:84:86:fa:e3:6c:95:37:37:0c:64:1f:12:8f:52:e3:
         e7:48:03:31:70:38:89:96:ea:3b:c9:2b:a9:33:20:4b:d3:ee:
         7a:f0:2e:9d:c9:7d:9e:a7:c4:8b:5c:bc:26:63:be:b0:fa:16:
         7f:7e:14:e4:f1:b7:aa:b8:b2:cc:19:2b:d8:0e:94:ea:27:5d:
         b6:a4:93:e7:94:a4:6c:f6:4d:92:93:48:47:4a:7d:1b:3f:63:
         bd:79:0d:28:90:cf:96:ae:4b:01:23:06:3c:4f:46:d4:54:5d:
         c6:5d:fd:ee:24:ab:45:67:49:b3:b9:a6:5a:d3:00:21:8f:d7:
         70:5c:09:f0:da:d5:71:80:e2:23:07:b6:00:f4:76:db:28:6b:
         76:6d:fd:c1:35:10:91:21:c1:d8:d0:25:de:28:f3:13:57:20:
         24:8e:32:a3:79:7d:6e:11:f0:71:5c:b6:59:b0:c9:c3:14:57:
         34:96:95:c2:8d:1b:fd:a4:3c:75:c6:a8:25:38:f8:a8:a4:2b:
         a9:50:50:b2:ab:5f:7b:b2:7a:6d:f7:cc:f8:eb:d4:60:ba:de:
         98:58:1b:66:d2:80:25:ae:01:30:2f:15:22:dd:5b:0b:e9:55:
         c1:30:d8:94
-----BEGIN CERTIFICATE-----
MIIDEjCCAfqgAwIBAgIRANP/6Bf8YlFvtrMh4HWS+mowDQYJKoZIhvcNAQELBQAw
EjEQMA4GA1UEAwwHUm9vdCBDQTAeFw0yMzExMTkyMjMwNThaFw0zMzExMTYyMjMw
NThaMBIxEDAOBgNVBAMMB1Jvb3QgQ0EwggEiMA0GCSqGSIb3DQEBAQUAA4IBDwAw
ggEKAoIBAQDEEwvX3Q5o6oNIrLfZc5Z5LPEiEz/kCSjKhFdUf+hDe0BHEOeR6gi6
hCai3mldncsHkCIYMKyliZCjj5YqRgMXUclaZE73GJuLoza+T5OlSLU6FsiP4QdA
k9Pbamszev1a02VzTP+gE7+ixaq+NvjAQegqdHeBNFEVBH/DACV0sU1v9N9cRiMF
ttwUHMibdHuNjENbI5WCGrCrjAlHvFDVgOuFnD6aveK+3TJHNHaY1wTyo2cWXC2j
cE7mZsWx7o2afe+a2asYEBqPud27M6Fxd9tNauV4j1Wm8AcG6ecC/VCXdNaYtVZf
zGWbeDEsbmkPdAgl8ebVsfZmVZKgmdHFAgMBAAGjYzBhMA8GA1UdEwEB/wQFMAMB
Af8wHQYDVR0OBBYEFOhiKxqyuQgE2RQCnmHo728tah0qMB8GA1UdIwQYMBaAFOhi
KxqyuQgE2RQCnmHo728tah0qMA4GA1UdDwEB/wQEAwIBBjANBgkqhkiG9w0BAQsF
AAOCAQEAKNkH4yY1nHGKSdzhrwsseglXE+hlhIb642yVNzcMZB8Sj1Lj50gDMXA4
iZbqO8krqTMgS9PuevAuncl9nqfEi1y8JmO+sPoWf34U5PG3qriyzBkr2A6U6idd
tqST55SkbPZNkpNIR0p9Gz9jvXkNKJDPlq5LASMGPE9G1FRdxl397iSrRWdJs7mm
WtMAIY/XcFwJ8NrVcYDiIwe2APR22yhrdm39wTUQkSHB2NAl3ijzE1cgJI4yo3l9
bhHwcVy2WbDJwxRXNJaVwo0b/aQ8dcaoJTj4qKQrqVBQsqtfe7J6bffM+OvUYLre
mFgbZtKAJa4BMC8VIt1bC+lVwTDYlA==
-----END CERTIFICATE-----
