Certificate:
    Data:
        Version: 3 (0x2)
        Serial Number:
            d3:ff:e8:17:fc:62:51:6f:b6:b3:21:e0:75:92:fa:6b
        Signature Algorithm: sha256WithRSAEncryption
        Issuer: CN=Root CA
        Validity
            Not Before: Nov 19 22:31:05 2023 GMT
            Not After : Nov 16 22:31:05 2033 GMT
        Subject: C=US, ST=Missouri, O=FairCom Corporation, OU=Security Department, CN=localhost/emailAddress=support@faircom.com
        Subject Public Key Info:
            Public Key Algorithm: rsaEncryption
                RSA Public-Key: (2048 bit)
                Modulus:
                    00:c6:cb:39:0b:9b:f1:b1:8f:ce:73:a2:3c:b1:4c:
                    b5:e3:16:14:07:ac:7a:68:81:4e:a6:a0:da:6d:6a:
                    20:09:cc:05:a9:c3:b7:01:a1:3c:be:7d:95:24:79:
                    29:a6:ce:a9:0b:de:8d:9f:da:ff:92:b8:0e:38:81:
                    be:9b:9d:e3:ec:9d:cd:40:26:62:8a:3b:d8:e2:a4:
                    c6:be:59:dc:a1:4f:0b:02:02:26:8e:72:3d:33:2a:
                    7d:b2:02:7f:62:f3:70:33:1e:7f:96:4e:28:a6:c7:
                    45:e4:90:d3:f1:76:59:88:bf:9d:60:da:90:0d:fe:
                    e6:66:9e:52:2b:b4:05:f1:c7:a9:cc:4e:a4:38:89:
                    de:e4:18:c1:71:e4:c5:6c:0b:e2:e7:f4:05:f4:f0:
                    b8:6b:62:cf:6e:c9:dd:94:71:6b:11:a1:32:74:5d:
                    d8:cf:f9:c7:ea:45:4a:f7:34:8d:51:bc:6c:27:3e:
                    f2:7f:e6:a4:58:ee:1c:2c:7d:da:ad:b1:f9:98:cd:
                    9a:30:4b:a3:c7:bb:f5:1c:52:cc:44:79:aa:4f:be:
                    80:11:f9:e1:93:ba:4b:24:bc:87:39:1e:ca:58:e8:
                    a4:1d:b6:c8:0c:98:5c:84:00:e2:7e:0a:fc:8f:ad:
                    d1:0e:be:68:13:cd:4b:15:5a:61:d4:f6:3a:0f:fc:
                    94:e9
                Exponent: 65537 (0x10001)
        X509v3 extensions:
            X509v3 Subject Key Identifier: 
                85:E6:26:4D:FA:08:1D:BC:85:76:D1:55:57:62:9C:26:58:DA:56:11
            X509v3 Authority Key Identifier: 
                keyid:E8:62:2B:1A:B2:B9:08:04:D9:14:02:9E:61:E8:EF:6F:2D:6A:1D:2A

            X509v3 Basic Constraints: critical
                CA:FALSE
            X509v3 Extended Key Usage: 
                TLS Web Server Authentication
            X509v3 Key Usage: 
                Digital Signature, Non Repudiation, Key Encipherment, Data Encipherment
            X509v3 Subject Alternative Name: 
                DNS:localhost
    Signature Algorithm: sha256WithRSAEncryption
         7d:b2:81:79:a6:1e:61:26:79:44:40:a7:28:5b:07:3f:34:f3:
         4e:f7:d3:7e:cb:f4:17:28:55:55:50:a9:3d:b8:64:cb:0c:22:
         05:57:d1:2a:32:5b:95:1a:c9:a8:5f:fc:f6:40:82:a0:17:5b:
         ee:bc:51:d6:3d:88:b4:3d:31:a6:16:42:cd:1c:12:91:d5:e3:
         3d:5f:23:76:8a:ff:21:bf:6b:83:c6:ca:f5:bb:02:67:d7:52:
         d0:2f:8c:dc:da:7b:b8:e5:7e:85:92:27:de:e7:47:5b:44:33:
         91:37:d3:a5:5d:99:ad:45:f1:81:44:2d:7a:1d:ca:90:0e:01:
         d5:51:9e:18:9f:07:5a:14:0a:91:4d:90:85:ab:ce:6d:83:1d:
         51:fe:d9:80:a6:d5:e4:54:fd:15:27:77:f6:45:10:6b:1e:25:
         30:87:02:ba:da:a5:ac:c5:ab:17:26:48:24:de:59:14:a1:dd:
         bb:ad:83:95:fc:ab:e5:75:5c:ce:92:5d:86:15:4f:89:ef:a9:
         16:8a:1d:4c:54:1c:5b:2d:70:4b:78:9a:e5:71:c4:3e:de:52:
         af:98:21:ba:40:fc:a1:b1:a9:60:f1:e9:f0:fe:7c:35:89:14:
         15:c8:c9:06:22:2a:00:51:52:36:07:ab:e9:d6:ad:0a:c4:d2:
         48:90:81:84
-----BEGIN CERTIFICATE-----
MIIDvDCCAqSgAwIBAgIRANP/6Bf8YlFvtrMh4HWS+mswDQYJKoZIhvcNAQELBQAw
EjEQMA4GA1UEAwwHUm9vdCBDQTAeFw0yMzExMTkyMjMxMDVaFw0zMzExMTYyMjMx
MDVaMIGUMQswCQYDVQQGEwJVUzERMA8GA1UECAwITWlzc291cmkxHDAaBgNVBAoM
E0ZhaXJDb20gQ29ycG9yYXRpb24xHDAaBgNVBAsME1NlY3VyaXR5IERlcGFydG1l
bnQxEjAQBgNVBAMMCWxvY2FsaG9zdDEiMCAGCSqGSIb3DQEJARYTc3VwcG9ydEBm
YWlyY29tLmNvbTCCASIwDQYJKoZIhvcNAQEBBQADggEPADCCAQoCggEBAMbLOQub
8bGPznOiPLFMteMWFAesemiBTqag2m1qIAnMBanDtwGhPL59lSR5KabOqQvejZ/a
/5K4DjiBvpud4+ydzUAmYoo72OKkxr5Z3KFPCwICJo5yPTMqfbICf2LzcDMef5ZO
KKbHReSQ0/F2WYi/nWDakA3+5maeUiu0BfHHqcxOpDiJ3uQYwXHkxWwL4uf0BfTw
uGtiz27J3ZRxaxGhMnRd2M/5x+pFSvc0jVG8bCc+8n/mpFjuHCx92q2x+ZjNmjBL
o8e79RxSzER5qk++gBH54ZO6SyS8hzkeyljopB22yAyYXIQA4n4K/I+t0Q6+aBPN
SxVaYdT2Og/8lOkCAwEAAaOBiTCBhjAdBgNVHQ4EFgQUheYmTfoIHbyFdtFVV2Kc
JljaVhEwHwYDVR0jBBgwFoAU6GIrGrK5CATZFAKeYejvby1qHSowDAYDVR0TAQH/
BAIwADATBgNVHSUEDDAKBggrBgEFBQcDATALBgNVHQ8EBAMCBPAwFAYDVR0RBA0w
C4IJbG9jYWxob3N0MA0GCSqGSIb3DQEBCwUAA4IBAQB9soF5ph5hJnlEQKcoWwc/
NPNO99N+y/QXKFVVUKk9uGTLDCIFV9EqMluVGsmoX/z2QIKgF1vuvFHWPYi0PTGm
FkLNHBKR1eM9XyN2iv8hv2uDxsr1uwJn11LQL4zc2nu45X6Fkife50dbRDORN9Ol
XZmtRfGBRC16HcqQDgHVUZ4YnwdaFAqRTZCFq85tgx1R/tmAptXkVP0VJ3f2RRBr
HiUwhwK62qWsxasXJkgk3lkUod27rYOV/KvldVzOkl2GFU+J76kWih1MVBxbLXBL
eJrlccQ+3lKvmCG6QPyhsalg8enw/nw1iRQVyMkGIioAUVI2B6vp1q0KxNJIkIGE
-----END CERTIFICATE-----
Certificate:
    Data:
        Version: 3 (0x2)
        Serial Number:
            d3:ff:e8:17:fc:62:51:6f:b6:b3:21:e0:75:92:fa:6a
        Signature Algorithm: sha256WithRSAEncryption
        Issuer: CN=Root CA
        Validity
            Not Before: Nov 19 22:30:58 2023 GMT
            Not After : Nov 16 22:30:58 2033 GMT
        Subject: CN=Root CA
        Subject Public Key Info:
            Public Key Algorithm: rsaEncryption
                RSA Public-Key: (2048 bit)
                Modulus:
                    00:c4:13:0b:d7:dd:0e:68:ea:83:48:ac:b7:d9:73:
                    96:79:2c:f1:22:13:3f:e4:09:28:ca:84:57:54:7f:
                    e8:43:7b:40:47:10:e7:91:ea:08:ba:84:26:a2:de:
                    69:5d:9d:cb:07:90:22:18:30:ac:a5:89:90:a3:8f:
                    96:2a:46:03:17:51:c9:5a:64:4e:f7:18:9b:8b:a3:
                    36:be:4f:93:a5:48:b5:3a:16:c8:8f:e1:07:40:93:
                    d3:db:6a:6b:33:7a:fd:5a:d3:65:73:4c:ff:a0:13:
                    bf:a2:c5:aa:be:36:f8:c0:41:e8:2a:74:77:81:34:
                    51:15:04:7f:c3:00:25:74:b1:4d:6f:f4:df:5c:46:
                    23:05:b6:dc:14:1c:c8:9b:74:7b:8d:8c:43:5b:23:
                    95:82:1a:b0:ab:8c:09:47:bc:50:d5:80:eb:85:9c:
                    3e:9a:bd:e2:be:dd:32:47:34:76:98:d7:04:f2:a3:
                    67:16:5c:2d:a3:70:4e:e6:66:c5:b1:ee:8d:9a:7d:
                    ef:9a:d9:ab:18:10:1a:8f:b9:dd:bb:33:a1:71:77:
                    db:4d:6a:e5:78:8f:55:a6:f0:07:06:e9:e7:02:fd:
                    50:97:74:d6:98:b5:56:5f:cc:65:9b:78:31:2c:6e:
                    69:0f:74:08:25:f1:e6:d5:b1:f6:66:55:92:a0:99:
                    d1:c5
                Exponent: 65537 (0x10001)
        X509v3 extensions:
            X509v3 Basic Constraints: critical
                CA:TRUE
            X509v3 Subject Key Identifier: 
                E8:62:2B:1A:B2:B9:08:04:D9:14:02:9E:61:E8:EF:6F:2D:6A:1D:2A
            X509v3 Authority Key Identifier: 
                keyid:E8:62:2B:1A:B2:B9:08:04:D9:14:02:9E:61:E8:EF:6F:2D:6A:1D:2A

            X509v3 Key Usage: critical
                Certificate Sign, CRL Sign
    Signature Algorithm: sha256WithRSAEncryption
         28:d9:07:e3:26:35:9c:71:8a:49:dc:e1:af:0b:2c:7a:09:57:
         13:e8:65:84:86:fa:e3:6c:95:37:37:0c:64:1f:12:8f:52:e3:
         e7:48:03:31:70:38:89:96:ea:3b:c9:2b:a9:33:20:4b:d3:ee:
         7a:f0:2e:9d:c9:7d:9e:a7:c4:8b:5c:bc:26:63:be:b0:fa:16:
         7f:7e:14:e4:f1:b7:aa:b8:b2:cc:19:2b:d8:0e:94:ea:27:5d:
         b6:a4:93:e7:94:a4:6c:f6:4d:92:93:48:47:4a:7d:1b:3f:63:
         bd:79:0d:28:90:cf:96:ae:4b:01:23:06:3c:4f:46:d4:54:5d:
         c6:5d:fd:ee:24:ab:45:67:49:b3:b9:a6:5a:d3:00:21:8f:d7:
         70:5c:09:f0:da:d5:71:80:e2:23:07:b6:00:f4:76:db:28:6b:
         76:6d:fd:c1:35:10:91:21:c1:d8:d0:25:de:28:f3:13:57:20:
         24:8e:32:a3:79:7d:6e:11:f0:71:5c:b6:59:b0:c9:c3:14:57:
         34:96:95:c2:8d:1b:fd:a4:3c:75:c6:a8:25:38:f8:a8:a4:2b:
         a9:50:50:b2:ab:5f:7b:b2:7a:6d:f7:cc:f8:eb:d4:60:ba:de:
         98:58:1b:66:d2:80:25:ae:01:30:2f:15:22:dd:5b:0b:e9:55:
         c1:30:d8:94
-----BEGIN CERTIFICATE-----
MIIDEjCCAfqgAwIBAgIRANP/6Bf8YlFvtrMh4HWS+mowDQYJKoZIhvcNAQELBQAw
EjEQMA4GA1UEAwwHUm9vdCBDQTAeFw0yMzExMTkyMjMwNThaFw0zMzExMTYyMjMw
NThaMBIxEDAOBgNVBAMMB1Jvb3QgQ0EwggEiMA0GCSqGSIb3DQEBAQUAA4IBDwAw
ggEKAoIBAQDEEwvX3Q5o6oNIrLfZc5Z5LPEiEz/kCSjKhFdUf+hDe0BHEOeR6gi6
hCai3mldncsHkCIYMKyliZCjj5YqRgMXUclaZE73GJuLoza+T5OlSLU6FsiP4QdA
k9Pbamszev1a02VzTP+gE7+ixaq+NvjAQegqdHeBNFEVBH/DACV0sU1v9N9cRiMF
ttwUHMibdHuNjENbI5WCGrCrjAlHvFDVgOuFnD6aveK+3TJHNHaY1wTyo2cWXC2j
cE7mZsWx7o2afe+a2asYEBqPud27M6Fxd9tNauV4j1Wm8AcG6ecC/VCXdNaYtVZf
zGWbeDEsbmkPdAgl8ebVsfZmVZKgmdHFAgMBAAGjYzBhMA8GA1UdEwEB/wQFMAMB
Af8wHQYDVR0OBBYEFOhiKxqyuQgE2RQCnmHo728tah0qMB8GA1UdIwQYMBaAFOhi
KxqyuQgE2RQCnmHo728tah0qMA4GA1UdDwEB/wQEAwIBBjANBgkqhkiG9w0BAQsF
AAOCAQEAKNkH4yY1nHGKSdzhrwsseglXE+hlhIb642yVNzcMZB8Sj1Lj50gDMXA4
iZbqO8krqTMgS9PuevAuncl9nqfEi1y8JmO+sPoWf34U5PG3qriyzBkr2A6U6idd
tqST55SkbPZNkpNIR0p9Gz9jvXkNKJDPlq5LASMGPE9G1FRdxl397iSrRWdJs7mm
WtMAIY/XcFwJ8NrVcYDiIwe2APR22yhrdm39wTUQkSHB2NAl3ijzE1cgJI4yo3l9
bhHwcVy2WbDJwxRXNJaVwo0b/aQ8dcaoJTj4qKQrqVBQsqtfe7J6bffM+OvUYLre
mFgbZtKAJa4BMC8VIt1bC+lVwTDYlA==
-----END CERTIFICATE-----
-----BEGIN RSA PRIVATE KEY-----
MIIEpAIBAAKCAQEAxss5C5vxsY/Oc6I8sUy14xYUB6x6aIFOpqDabWogCcwFqcO3
AaE8vn2VJHkpps6pC96Nn9r/krgOOIG+m53j7J3NQCZiijvY4qTGvlncoU8LAgIm
jnI9Myp9sgJ/YvNwMx5/lk4opsdF5JDT8XZZiL+dYNqQDf7mZp5SK7QF8cepzE6k
OIne5BjBceTFbAvi5/QF9PC4a2LPbsndlHFrEaEydF3Yz/nH6kVK9zSNUbxsJz7y
f+akWO4cLH3arbH5mM2aMEujx7v1HFLMRHmqT76AEfnhk7pLJLyHOR7KWOikHbbI
DJhchADifgr8j63RDr5oE81LFVph1PY6D/yU6QIDAQABAoIBAHmjfhtZZ3GToerl
eaevXZg/OTBc3GW3wY153U2X41S7TzfKdt97bnTM2QaBUPgtegi2PAh1c26uSp1O
3nfQC9gL0ryPADq/Vf2Qf7+XssXNXNn0wOzmgAYf2NukZZgBh0TwQ3eQCZXLVzv9
VoJoPW7MeJr8AaterlJaS8NMG1sOEUUm7JVhwUiSbN1b50KWy8pFEltTuyzmjPl3
k17udGvnNNbo1C6S9Aw1D8E35mm706lAfoFUh7e1OlLHjrLQfkT/YlgGbhsC5iH2
nDa8fVROlR251LbCLhB75dWpDLKlk8HT5fajGebsVWcqttbtS5dJFZ9YOFu96slz
UAjeUtECgYEA8vadLMk8IwUzgv5bDJgYTpjVhN0/kDMEi3Uccim/auFHC8bpZxwL
U8K6VeAQhjyPs4lXA6kNFvcDK1jxjpyBkH5DQeArSuoXC76mhZDMYnqiLDVCV0Y6
wQ0Q4qR43F44mLeLsdJREK8udMT2VhQqxQCQdkMUD+iEA83WEv+Ce70CgYEA0XXj
m3Nf2Nn2bTOs1FH2aU6LpT3uT70fbgabjvwJyiQCEwb4xMYS1n9DVJquy+Mny/Jb
e5X2vTPfA/PRvowB4mGqWgCKOrY/zYHtvECfQTn4W6yQTVbbjsyt5PViQ7q+tkyk
MLyKimMHHnupHSK0ctnvlL+VdtOM9+v0haWTmp0CgYEAtds9ni4p4xSbj+sO/4hA
eWQQPdjVIPvu5OuNlS4GZtukL/586X6mQ9W3X1vNQozGCt470TOR5qSRLLrwY4xl
tl+ru/0sqnA5O8NCJStSsEuWY3yh4W1hwOokv1/YTyn/Nt/7oegIYXKeVSywLZH+
yWI4vyxKMfYaCjbhi2rQogkCgYAIMQcUtj9iWKvVe3bf2tC7L5IwhSqDvc6z29hL
kDnFyQC3w8cI0wI7l0CH14DMgna0+CZxv9yla5jmK6vhOtJ8CvvBh1Hgl+4I2HL2
sMRJpb27wBTooWP2wrRuRtZv9aattHObYFQ+sz69B3MGq6vI7hL7iz6KJh3WOEkY
zO/n1QKBgQDT2zY7Hatn36U7CqlkRww7roYPeQJIfrf8ebl4QYYHPko+mCVO7Gyr
Bt3n7WmbbOAnG9qTiugsKdhHC2ez3dEem7rzpqh+7TrPeoQYJhDs3KgMKVhaMaW6
L++nzIH2S4WYYv/188Z5gMw7IJU8LYMA9jat3TaZK+IQmfVYQZEY6w==
-----END RSA PRIVATE KEY-----
