Certificate:
    Data:
        Version: 3 (0x2)
        Serial Number:
            d3:ff:e8:17:fc:62:51:6f:b6:b3:21:e0:75:92:fa:6d
        Signature Algorithm: sha256WithRSAEncryption
        Issuer: CN=Root CA
        Validity
            Not Before: Nov 19 22:31:20 2023 GMT
            Not After : Nov 16 22:31:20 2033 GMT
        Subject: C=US, ST=Missouri, O=FairCom Corporation, OU=Security Department, CN=Jon Doe/emailAddress=support@faircom.com
        Subject Public Key Info:
            Public Key Algorithm: rsaEncryption
                RSA Public-Key: (2048 bit)
                Modulus:
                    00:e5:a5:a1:98:54:15:80:97:88:8b:e8:30:4c:b2:
                    28:a8:3a:db:07:11:f5:2d:fc:42:51:ec:d8:b7:5c:
                    f0:aa:12:03:fc:4f:0a:6a:0e:98:ae:7b:9e:ff:44:
                    dd:08:1c:44:f5:71:df:6e:f0:be:63:55:b9:80:bd:
                    dc:ab:87:ef:97:65:9b:4b:cb:02:87:0c:97:84:b3:
                    fb:50:cc:39:bf:41:c6:95:09:54:06:c3:9c:ff:a7:
                    87:a0:a4:f8:5a:44:a5:75:49:33:3c:61:e4:a3:0a:
                    a8:c8:db:ac:af:9d:67:89:ca:8e:c7:04:3b:db:36:
                    15:3a:a6:dd:10:8b:aa:d3:7f:9b:18:75:60:68:2c:
                    5d:fe:a9:66:e5:5d:9b:2a:64:ba:30:28:10:9a:ec:
                    b5:83:59:bf:c4:30:1c:d9:43:b4:b6:e3:00:02:d6:
                    3b:de:d3:22:1d:11:84:57:3b:07:2c:34:6b:bf:3d:
                    cf:f6:ea:d2:58:49:4c:a9:93:f1:79:0e:a2:60:8b:
                    d5:27:e1:cc:60:8e:a9:ea:e9:e2:7d:cc:69:02:7d:
                    b7:a4:1e:fe:9b:8c:b6:0c:56:8d:be:25:35:e7:b2:
                    c7:42:0f:90:35:56:98:22:7c:d4:f3:83:79:d1:8a:
                    68:28:05:ea:bc:39:ef:2c:d8:c2:5b:38:29:ab:19:
                    d6:75
                Exponent: 65537 (0x10001)
        X509v3 extensions:
            X509v3 Subject Key Identifier: 
                DC:5A:6D:5A:57:53:51:90:1D:2D:2A:8C:92:7E:63:2C:E8:E1:64:D4
            X509v3 Authority Key Identifier: 
                keyid:E8:62:2B:1A:B2:B9:08:04:D9:14:02:9E:61:E8:EF:6F:2D:6A:1D:2A

            X509v3 Basic Constraints: critical
                CA:FALSE
            X509v3 Extended Key Usage: 
                TLS Web Client Authentication
            X509v3 Key Usage: 
                Digital Signature, Non Repudiation, Key Encipherment, Data Encipherment
    Signature Algorithm: sha256WithRSAEncryption
         0a:40:c2:33:f6:31:57:49:a1:56:f7:c0:7f:37:b4:10:2e:9d:
         bf:67:6c:d9:ff:27:51:98:36:24:6b:bb:75:bc:07:03:fc:82:
         c7:7f:17:96:38:83:aa:a7:5f:54:ce:9d:ba:c4:98:10:d2:4d:
         06:80:c0:51:ed:34:4e:9b:be:93:78:9d:d1:77:ad:9a:56:24:
         ee:ed:d6:b3:3a:c4:2f:e1:3b:01:09:a1:68:38:99:78:17:d9:
         70:1f:f8:81:ea:e5:d8:c3:a6:47:d1:7c:8f:d0:4f:5c:6f:93:
         6f:6a:51:63:86:c7:6b:ea:dd:12:09:e4:7a:bf:de:9b:73:2f:
         b2:ee:01:c1:1f:7e:2a:99:49:39:b8:d9:41:0c:35:84:7c:6e:
         de:4a:08:f2:41:96:11:bc:16:3d:ab:30:bc:1a:98:fe:46:09:
         01:13:06:cf:5a:0d:ea:da:ed:dc:04:41:6d:de:e8:ce:05:ad:
         fa:0c:77:81:e0:57:ca:e2:b4:0d:e9:b9:b9:89:5c:39:1c:30:
         56:73:16:ac:a3:0e:3c:f6:26:52:d8:b8:74:f3:0f:b2:97:0c:
         a3:36:dc:7d:6a:2c:97:4f:13:a4:75:6d:5e:2e:31:02:62:53:
         11:d3:d4:c8:75:c5:0c:d5:05:dd:27:bf:09:5b:b7:44:3b:d4:
         07:51:0a:08
-----BEGIN CERTIFICATE-----
MIIDojCCAoqgAwIBAgIRANP/6Bf8YlFvtrMh4HWS+m0wDQYJKoZIhvcNAQELBQAw
EjEQMA4GA1UEAwwHUm9vdCBDQTAeFw0yMzExMTkyMjMxMjBaFw0zMzExMTYyMjMx
MjBaMIGSMQswCQYDVQQGEwJVUzERMA8GA1UECAwITWlzc291cmkxHDAaBgNVBAoM
E0ZhaXJDb20gQ29ycG9yYXRpb24xHDAaBgNVBAsME1NlY3VyaXR5IERlcGFydG1l
bnQxEDAOBgNVBAMMB0pvbiBEb2UxIjAgBgkqhkiG9w0BCQEWE3N1cHBvcnRAZmFp
cmNvbS5jb20wggEiMA0GCSqGSIb3DQEBAQUAA4IBDwAwggEKAoIBAQDlpaGYVBWA
l4iL6DBMsiioOtsHEfUt/EJR7Ni3XPCqEgP8TwpqDpiue57/RN0IHET1cd9u8L5j
VbmAvdyrh++XZZtLywKHDJeEs/tQzDm/QcaVCVQGw5z/p4egpPhaRKV1STM8YeSj
CqjI26yvnWeJyo7HBDvbNhU6pt0Qi6rTf5sYdWBoLF3+qWblXZsqZLowKBCa7LWD
Wb/EMBzZQ7S24wAC1jve0yIdEYRXOwcsNGu/Pc/26tJYSUypk/F5DqJgi9Un4cxg
jqnq6eJ9zGkCfbekHv6bjLYMVo2+JTXnssdCD5A1VpgifNTzg3nRimgoBeq8Oe8s
2MJbOCmrGdZ1AgMBAAGjcjBwMB0GA1UdDgQWBBTcWm1aV1NRkB0tKoySfmMs6OFk
1DAfBgNVHSMEGDAWgBToYisasrkIBNkUAp5h6O9vLWodKjAMBgNVHRMBAf8EAjAA
MBMGA1UdJQQMMAoGCCsGAQUFBwMCMAsGA1UdDwQEAwIE8DANBgkqhkiG9w0BAQsF
AAOCAQEACkDCM/YxV0mhVvfAfze0EC6dv2ds2f8nUZg2JGu7dbwHA/yCx38XljiD
qqdfVM6dusSYENJNBoDAUe00Tpu+k3id0XetmlYk7u3WszrEL+E7AQmhaDiZeBfZ
cB/4gerl2MOmR9F8j9BPXG+Tb2pRY4bHa+rdEgnker/em3Mvsu4BwR9+KplJObjZ
QQw1hHxu3koI8kGWEbwWPaswvBqY/kYJARMGz1oN6trt3ARBbd7ozgWt+gx3geBX
yuK0Dem5uYlcORwwVnMWrKMOPPYmUti4dPMPspcMozbcfWosl08TpHVtXi4xAmJT
EdPUyHXFDNUF3Se/CVu3RDvUB1EKCA==
-----END CERTIFICATE-----
Certificate:
    Data:
        Version: 3 (0x2)
        Serial Number:
            d3:ff:e8:17:fc:62:51:6f:b6:b3:21:e0:75:92:fa:6a
        Signature Algorithm: sha256WithRSAEncryption
        Issuer: CN=Root CA
        Validity
            Not Before: Nov 19 22:30:58 2023 GMT
            Not After : Nov 16 22:30:58 2033 GMT
        Subject: CN=Root CA
        Subject Public Key Info:
            Public Key Algorithm: rsaEncryption
                RSA Public-Key: (2048 bit)
                Modulus:
                    00:c4:13:0b:d7:dd:0e:68:ea:83:48:ac:b7:d9:73:
                    96:79:2c:f1:22:13:3f:e4:09:28:ca:84:57:54:7f:
                    e8:43:7b:40:47:10:e7:91:ea:08:ba:84:26:a2:de:
                    69:5d:9d:cb:07:90:22:18:30:ac:a5:89:90:a3:8f:
                    96:2a:46:03:17:51:c9:5a:64:4e:f7:18:9b:8b:a3:
                    36:be:4f:93:a5:48:b5:3a:16:c8:8f:e1:07:40:93:
                    d3:db:6a:6b:33:7a:fd:5a:d3:65:73:4c:ff:a0:13:
                    bf:a2:c5:aa:be:36:f8:c0:41:e8:2a:74:77:81:34:
                    51:15:04:7f:c3:00:25:74:b1:4d:6f:f4:df:5c:46:
                    23:05:b6:dc:14:1c:c8:9b:74:7b:8d:8c:43:5b:23:
                    95:82:1a:b0:ab:8c:09:47:bc:50:d5:80:eb:85:9c:
                    3e:9a:bd:e2:be:dd:32:47:34:76:98:d7:04:f2:a3:
                    67:16:5c:2d:a3:70:4e:e6:66:c5:b1:ee:8d:9a:7d:
                    ef:9a:d9:ab:18:10:1a:8f:b9:dd:bb:33:a1:71:77:
                    db:4d:6a:e5:78:8f:55:a6:f0:07:06:e9:e7:02:fd:
                    50:97:74:d6:98:b5:56:5f:cc:65:9b:78:31:2c:6e:
                    69:0f:74:08:25:f1:e6:d5:b1:f6:66:55:92:a0:99:
                    d1:c5
                Exponent: 65537 (0x10001)
        X509v3 extensions:
            X509v3 Basic Constraints: critical
                CA:TRUE
            X509v3 Subject Key Identifier: 
                E8:62:2B:1A:B2:B9:08:04:D9:14:02:9E:61:E8:EF:6F:2D:6A:1D:2A
            X509v3 Authority Key Identifier: 
                keyid:E8:62:2B:1A:B2:B9:08:04:D9:14:02:9E:61:E8:EF:6F:2D:6A:1D:2A

            X509v3 Key Usage: critical
                Certificate Sign, CRL Sign
    Signature Algorithm: sha256WithRSAEncryption
         28:d9:07:e3:26:35:9c:71:8a:49:dc:e1:af:0b:2c:7a:09:57:
         13:e8:65:84:86:fa:e3:6c:95:37:37:0c:64:1f:12:8f:52:e3:
         e7:48:03:31:70:38:89:96:ea:3b:c9:2b:a9:33:20:4b:d3:ee:
         7a:f0:2e:9d:c9:7d:9e:a7:c4:8b:5c:bc:26:63:be:b0:fa:16:
         7f:7e:14:e4:f1:b7:aa:b8:b2:cc:19:2b:d8:0e:94:ea:27:5d:
         b6:a4:93:e7:94:a4:6c:f6:4d:92:93:48:47:4a:7d:1b:3f:63:
         bd:79:0d:28:90:cf:96:ae:4b:01:23:06:3c:4f:46:d4:54:5d:
         c6:5d:fd:ee:24:ab:45:67:49:b3:b9:a6:5a:d3:00:21:8f:d7:
         70:5c:09:f0:da:d5:71:80:e2:23:07:b6:00:f4:76:db:28:6b:
         76:6d:fd:c1:35:10:91:21:c1:d8:d0:25:de:28:f3:13:57:20:
         24:8e:32:a3:79:7d:6e:11:f0:71:5c:b6:59:b0:c9:c3:14:57:
         34:96:95:c2:8d:1b:fd:a4:3c:75:c6:a8:25:38:f8:a8:a4:2b:
         a9:50:50:b2:ab:5f:7b:b2:7a:6d:f7:cc:f8:eb:d4:60:ba:de:
         98:58:1b:66:d2:80:25:ae:01:30:2f:15:22:dd:5b:0b:e9:55:
         c1:30:d8:94
-----BEGIN CERTIFICATE-----
MIIDEjCCAfqgAwIBAgIRANP/6Bf8YlFvtrMh4HWS+mowDQYJKoZIhvcNAQELBQAw
EjEQMA4GA1UEAwwHUm9vdCBDQTAeFw0yMzExMTkyMjMwNThaFw0zMzExMTYyMjMw
NThaMBIxEDAOBgNVBAMMB1Jvb3QgQ0EwggEiMA0GCSqGSIb3DQEBAQUAA4IBDwAw
ggEKAoIBAQDEEwvX3Q5o6oNIrLfZc5Z5LPEiEz/kCSjKhFdUf+hDe0BHEOeR6gi6
hCai3mldncsHkCIYMKyliZCjj5YqRgMXUclaZE73GJuLoza+T5OlSLU6FsiP4QdA
k9Pbamszev1a02VzTP+gE7+ixaq+NvjAQegqdHeBNFEVBH/DACV0sU1v9N9cRiMF
ttwUHMibdHuNjENbI5WCGrCrjAlHvFDVgOuFnD6aveK+3TJHNHaY1wTyo2cWXC2j
cE7mZsWx7o2afe+a2asYEBqPud27M6Fxd9tNauV4j1Wm8AcG6ecC/VCXdNaYtVZf
zGWbeDEsbmkPdAgl8ebVsfZmVZKgmdHFAgMBAAGjYzBhMA8GA1UdEwEB/wQFMAMB
Af8wHQYDVR0OBBYEFOhiKxqyuQgE2RQCnmHo728tah0qMB8GA1UdIwQYMBaAFOhi
KxqyuQgE2RQCnmHo728tah0qMA4GA1UdDwEB/wQEAwIBBjANBgkqhkiG9w0BAQsF
AAOCAQEAKNkH4yY1nHGKSdzhrwsseglXE+hlhIb642yVNzcMZB8Sj1Lj50gDMXA4
iZbqO8krqTMgS9PuevAuncl9nqfEi1y8JmO+sPoWf34U5PG3qriyzBkr2A6U6idd
tqST55SkbPZNkpNIR0p9Gz9jvXkNKJDPlq5LASMGPE9G1FRdxl397iSrRWdJs7mm
WtMAIY/XcFwJ8NrVcYDiIwe2APR22yhrdm39wTUQkSHB2NAl3ijzE1cgJI4yo3l9
bhHwcVy2WbDJwxRXNJaVwo0b/aQ8dcaoJTj4qKQrqVBQsqtfe7J6bffM+OvUYLre
mFgbZtKAJa4BMC8VIt1bC+lVwTDYlA==
-----END CERTIFICATE-----
